target datalayout = "e-m:e-p270:32:32-p271:32:32-p272:64:64-i64:64-i128:128-f80:128-n8:16:32:64-S128"
target triple = "x86_64-pc-linux-gnu"

%"struct.hb::shared_ptr" = type { ptr }
%struct.hb_subset_input_t = type { %struct.hb_object_header_t, %union.anon, i32, i8, i8, %struct.hb_hashmap_t, %struct.hb_map_t }
%struct.hb_object_header_t = type { %struct.hb_reference_count_t, %struct.hb_atomic_int_t, %struct.hb_atomic_ptr_t }
%struct.hb_reference_count_t = type { %struct.hb_atomic_int_t }
%struct.hb_atomic_int_t = type { i32 }
%struct.hb_atomic_ptr_t = type { ptr }
%union.anon = type { %"struct.hb_subset_input_t::sets_t" }
%"struct.hb_subset_input_t::sets_t" = type { %"struct.hb::shared_ptr", %"struct.hb::shared_ptr", %"struct.hb::shared_ptr", %"struct.hb::shared_ptr", %"struct.hb::shared_ptr", %"struct.hb::shared_ptr", %"struct.hb::shared_ptr", %"struct.hb::shared_ptr" }
%struct.hb_hashmap_t = type { %struct.hb_object_header_t, i8, i16, i32, i32, i32, i32, ptr }
%struct.hb_map_t = type { %struct.hb_hashmap_t.0 }
%struct.hb_hashmap_t.0 = type { %struct.hb_object_header_t, i8, i16, i32, i32, i32, i32, ptr }
%struct.hb_user_data_array_t = type { %struct.hb_mutex_t, %struct.hb_lockable_set_t }
%struct.hb_mutex_t = type { [40 x i8] }
%struct.hb_lockable_set_t = type { %struct.hb_vector_t.34 }
%struct.hb_vector_t.34 = type { i32, i32, ptr }

; Function Attrs: mustprogress nounwind uwtable
define linkonce_odr dso_local noundef i32 @_ZNK15hb_atomic_int_t11get_relaxedEv(ptr noundef nonnull align 4 dereferenceable(4) %0) #0 comdat align 2 {
  %2 = alloca ptr, align 8
  %3 = alloca i32, align 4
  store ptr %0, ptr %2, align 8, !tbaa !106
  %4 = load ptr, ptr %2, align 8
  %5 = getelementptr inbounds nuw %struct.hb_atomic_int_t, ptr %4, i32 0, i32 0
  %6 = load atomic i32, ptr %5 monotonic, align 4
  store i32 %6, ptr %3, align 4
  %7 = load i32, ptr %3, align 4, !tbaa !43
  ret i32 %7
}

; Function Attrs: mustprogress nounwind uwtable
define linkonce_odr dso_local void @_ZN11hb_vector_tIN20hb_user_data_array_t19hb_user_data_item_tELb0EE4initEv(ptr noundef nonnull align 8 dereferenceable(16) %0) #0 comdat align 2 {
  %2 = alloca ptr, align 8
  store ptr %0, ptr %2, align 8, !tbaa !204
  %3 = load ptr, ptr %2, align 8
  %4 = getelementptr inbounds nuw %struct.hb_vector_t.34, ptr %3, i32 0, i32 1
  store i32 0, ptr %4, align 4, !tbaa !208
  %5 = getelementptr inbounds nuw %struct.hb_vector_t.34, ptr %3, i32 0, i32 0
  store i32 0, ptr %5, align 8, !tbaa !206
  %6 = getelementptr inbounds nuw %struct.hb_vector_t.34, ptr %3, i32 0, i32 2
  store ptr null, ptr %6, align 8, !tbaa !207
  ret void
}

; Function Attrs: mustprogress nounwind uwtable
define linkonce_odr dso_local noundef i32 @_ZNK15hb_atomic_int_tcviEv(ptr noundef nonnull align 4 dereferenceable(4) %0) #0 comdat align 2 {
  %2 = alloca ptr, align 8
  store ptr %0, ptr %2, align 8, !tbaa !106
  %3 = load ptr, ptr %2, align 8
  %4 = call noundef i32 @_ZNK15hb_atomic_int_t11get_relaxedEv(ptr noundef nonnull align 4 dereferenceable(4) %3)
  ret i32 %4
}

; Function Attrs: mustprogress nounwind uwtable
define linkonce_odr dso_local void @_ZN10hb_mutex_t4finiEv(ptr noundef nonnull align 8 dereferenceable(40) %0) #0 comdat align 2 {
  %2 = alloca ptr, align 8
  store ptr %0, ptr %2, align 8, !tbaa !196
  %3 = load ptr, ptr %2, align 8
  %4 = getelementptr inbounds nuw %struct.hb_mutex_t, ptr %3, i32 0, i32 0
  %5 = getelementptr inbounds [40 x i8], ptr %4, i64 0, i64 0
  %6 = call i32 @pthread_mutex_destroy(ptr noundef %5) #13
  ret void
}

; Function Attrs: inlinehint mustprogress nounwind uwtable
define internal noundef zeroext i1 @_ZL28_hb_atomic_ptr_impl_cmplexchPPKvS0_S0_(ptr noundef %0, ptr noundef %1, ptr noundef %2) #1 {
  %4 = alloca ptr, align 8
  %5 = alloca ptr, align 8
  %6 = alloca ptr, align 8
  %7 = alloca ptr, align 8
  %8 = alloca ptr, align 8
  %9 = alloca i8, align 1
  store ptr %0, ptr %4, align 8, !tbaa !217
  store ptr %1, ptr %5, align 8, !tbaa !56
  store ptr %2, ptr %6, align 8, !tbaa !56
  call void @llvm.lifetime.start.p0(i64 8, ptr %7) #13
  %10 = load ptr, ptr %5, align 8, !tbaa !56
  store ptr %10, ptr %7, align 8, !tbaa !56
  %11 = load ptr, ptr %4, align 8, !tbaa !217
  %12 = load ptr, ptr %6, align 8, !tbaa !56
  store ptr %12, ptr %8, align 8, !tbaa !56
  %13 = load i64, ptr %7, align 8
  %14 = load i64, ptr %8, align 8
  %15 = cmpxchg weak ptr %11, i64 %13, i64 %14 acq_rel monotonic, align 8
  %16 = extractvalue { i64, i1 } %15, 0
  %17 = extractvalue { i64, i1 } %15, 1
  br i1 %17, label %19, label %18

18:                                               ; preds = %3
  store i64 %16, ptr %7, align 8
  br label %19

19:                                               ; preds = %18, %3
  %20 = zext i1 %17 to i8
  store i8 %20, ptr %9, align 1, !tbaa !79
  %21 = load i8, ptr %9, align 1, !tbaa !79, !range !80, !noundef !81
  %22 = trunc i8 %21 to i1
  call void @llvm.lifetime.end.p0(i64 8, ptr %7) #13
  ret i1 %22
}

; Function Attrs: mustprogress nounwind uwtable
define linkonce_odr dso_local void @_ZN17hb_lockable_set_tIN20hb_user_data_array_t19hb_user_data_item_tE10hb_mutex_tE4initEv(ptr noundef nonnull align 8 dereferenceable(16) %0) #0 comdat align 2 {
  %2 = alloca ptr, align 8
  store ptr %0, ptr %2, align 8, !tbaa !194
  %3 = load ptr, ptr %2, align 8
  %4 = getelementptr inbounds nuw %struct.hb_lockable_set_t, ptr %3, i32 0, i32 0
  call void @_ZN11hb_vector_tIN20hb_user_data_array_t19hb_user_data_item_tELb0EE4initEv(ptr noundef nonnull align 8 dereferenceable(16) %4)
  ret void
}

; Function Attrs: mustprogress nounwind uwtable
define linkonce_odr dso_local void @_ZN10hb_mutex_t4initEv(ptr noundef nonnull align 8 dereferenceable(40) %0) #0 comdat align 2 {
  %2 = alloca ptr, align 8
  store ptr %0, ptr %2, align 8, !tbaa !196
  %3 = load ptr, ptr %2, align 8
  %4 = getelementptr inbounds nuw %struct.hb_mutex_t, ptr %3, i32 0, i32 0
  %5 = getelementptr inbounds [40 x i8], ptr %4, i64 0, i64 0
  %6 = call i32 @pthread_mutex_init(ptr noundef %5, ptr noundef null) #13
  ret void
}

; Function Attrs: mustprogress nounwind uwtable
define linkonce_odr dso_local noundef i32 @_ZNK20hb_reference_count_t11get_relaxedEv(ptr noundef nonnull align 4 dereferenceable(4) %0) #0 comdat align 2 {
  %2 = alloca ptr, align 8
  store ptr %0, ptr %2, align 8, !tbaa !104
  %3 = load ptr, ptr %2, align 8
  %4 = getelementptr inbounds nuw %struct.hb_reference_count_t, ptr %3, i32 0, i32 0
  %5 = call noundef i32 @_ZNK15hb_atomic_int_tcviEv(ptr noundef nonnull align 4 dereferenceable(4) %4)
  ret i32 %5
}

; Function Attrs: mustprogress nounwind uwtable
define linkonce_odr dso_local void @_ZN20hb_user_data_array_t4finiEv(ptr noundef nonnull align 8 dereferenceable(56) %0) #0 comdat align 2 {
  %2 = alloca ptr, align 8
  store ptr %0, ptr %2, align 8, !tbaa !57
  %3 = load ptr, ptr %2, align 8
  %4 = getelementptr inbounds nuw %struct.hb_user_data_array_t, ptr %3, i32 0, i32 1
  %5 = getelementptr inbounds nuw %struct.hb_user_data_array_t, ptr %3, i32 0, i32 0
  call void @_ZN17hb_lockable_set_tIN20hb_user_data_array_t19hb_user_data_item_tE10hb_mutex_tE4finiERS2_(ptr noundef nonnull align 8 dereferenceable(16) %4, ptr noundef nonnull align 8 dereferenceable(40) %5)
  %6 = getelementptr inbounds nuw %struct.hb_user_data_array_t, ptr %3, i32 0, i32 0
  call void @_ZN10hb_mutex_t4finiEv(ptr noundef nonnull align 8 dereferenceable(40) %6)
  ret void
}

; Function Attrs: mustprogress nounwind uwtable
define linkonce_odr dso_local noundef zeroext i1 @_ZNK15hb_atomic_ptr_tI20hb_user_data_array_tE7cmpexchEPKS0_PS0_(ptr noundef nonnull align 8 dereferenceable(8) %0, ptr noundef %1, ptr noundef %2) #0 comdat align 2 {
  %4 = alloca ptr, align 8
  %5 = alloca ptr, align 8
  %6 = alloca ptr, align 8
  store ptr %0, ptr %4, align 8, !tbaa !109
  store ptr %1, ptr %5, align 8, !tbaa !57
  store ptr %2, ptr %6, align 8, !tbaa !57
  %7 = load ptr, ptr %4, align 8
  %8 = getelementptr inbounds nuw %struct.hb_atomic_ptr_t, ptr %7, i32 0, i32 0
  %9 = load ptr, ptr %5, align 8, !tbaa !57
  %10 = load ptr, ptr %6, align 8, !tbaa !57
  %11 = call noundef zeroext i1 @_ZL28_hb_atomic_ptr_impl_cmplexchPPKvS0_S0_(ptr noundef %8, ptr noundef %9, ptr noundef %10)
  ret i1 %11
}

; Function Attrs: mustprogress nounwind uwtable
define linkonce_odr dso_local void @_ZN20hb_user_data_array_t4initEv(ptr noundef nonnull align 8 dereferenceable(56) %0) #0 comdat align 2 {
  %2 = alloca ptr, align 8
  store ptr %0, ptr %2, align 8, !tbaa !57
  %3 = load ptr, ptr %2, align 8
  %4 = getelementptr inbounds nuw %struct.hb_user_data_array_t, ptr %3, i32 0, i32 0
  call void @_ZN10hb_mutex_t4initEv(ptr noundef nonnull align 8 dereferenceable(40) %4)
  %5 = getelementptr inbounds nuw %struct.hb_user_data_array_t, ptr %3, i32 0, i32 1
  call void @_ZN17hb_lockable_set_tIN20hb_user_data_array_t19hb_user_data_item_tE10hb_mutex_tE4initEv(ptr noundef nonnull align 8 dereferenceable(16) %5)
  ret void
}

; Function Attrs: mustprogress nounwind uwtable
define linkonce_odr dso_local noundef ptr @_ZNK15hb_atomic_ptr_tI20hb_user_data_array_tE11get_acquireEv(ptr noundef nonnull align 8 dereferenceable(8) %0) #0 comdat align 2 {
  %2 = alloca ptr, align 8
  %3 = alloca ptr, align 8
  store ptr %0, ptr %2, align 8, !tbaa !109
  %4 = load ptr, ptr %2, align 8
  %5 = getelementptr inbounds nuw %struct.hb_atomic_ptr_t, ptr %4, i32 0, i32 0
  %6 = load atomic i64, ptr %5 acquire, align 8
  store i64 %6, ptr %3, align 8
  %7 = load ptr, ptr %3, align 8, !tbaa !56
  ret ptr %7
}

; Function Attrs: mustprogress nounwind uwtable
define linkonce_odr dso_local noundef zeroext i1 @_ZNK18hb_object_header_t8is_inertEv(ptr noundef nonnull align 8 dereferenceable(16) %0) #0 comdat align 2 {
  %2 = alloca ptr, align 8
  store ptr %0, ptr %2, align 8, !tbaa !30
  %3 = load ptr, ptr %2, align 8
  %4 = getelementptr inbounds nuw %struct.hb_object_header_t, ptr %3, i32 0, i32 0
  %5 = call noundef i32 @_ZNK20hb_reference_count_t11get_relaxedEv(ptr noundef nonnull align 4 dereferenceable(4) %4)
  %6 = icmp ne i32 %5, 0
  %7 = xor i1 %6, true
  ret i1 %7
}

; Function Attrs: inlinehint mustprogress nounwind uwtable
define internal noundef zeroext i1 @_ZL23hb_object_set_user_dataI17hb_subset_input_tEbPT_P18hb_user_data_key_tPvPFvS5_Ei(ptr noundef %0, ptr noundef %1, ptr noundef %2, ptr noundef %3, i32 noundef %4) #1 {
  %6 = alloca i1, align 1
  %7 = alloca ptr, align 8
  %8 = alloca ptr, align 8
  %9 = alloca ptr, align 8
  %10 = alloca ptr, align 8
  %11 = alloca i32, align 4
  %12 = alloca ptr, align 8
  %13 = alloca i32, align 4
  store ptr %0, ptr %7, align 8, !tbaa !4
  store ptr %1, ptr %8, align 8, !tbaa !54
  store ptr %2, ptr %9, align 8, !tbaa !56
  store ptr %3, ptr %10, align 8, !tbaa !56
  store i32 %4, ptr %11, align 4, !tbaa !43
  %14 = load ptr, ptr %7, align 8, !tbaa !4
  %15 = icmp ne ptr %14, null
  br i1 %15, label %16, label %20

16:                                               ; preds = %5
  %17 = load ptr, ptr %7, align 8, !tbaa !4
  %18 = getelementptr inbounds nuw %struct.hb_subset_input_t, ptr %17, i32 0, i32 0
  %19 = call noundef zeroext i1 @_ZNK18hb_object_header_t8is_inertEv(ptr noundef nonnull align 8 dereferenceable(16) %18)
  br label %20

20:                                               ; preds = %16, %5
  %21 = phi i1 [ true, %5 ], [ %19, %16 ]
  %22 = zext i1 %21 to i64
  %23 = call i64 @llvm.expect.i64(i64 %22, i64 0)
  %24 = icmp ne i64 %23, 0
  br i1 %24, label %25, label %26

25:                                               ; preds = %20
  store i1 false, ptr %6, align 1
  br label %71

26:                                               ; preds = %20
  br label %27

27:                                               ; preds = %69, %26
  call void @llvm.lifetime.start.p0(i64 8, ptr %12) #13
  %28 = load ptr, ptr %7, align 8, !tbaa !4
  %29 = getelementptr inbounds nuw %struct.hb_subset_input_t, ptr %28, i32 0, i32 0
  %30 = getelementptr inbounds nuw %struct.hb_object_header_t, ptr %29, i32 0, i32 2
  %31 = call noundef ptr @_ZNK15hb_atomic_ptr_tI20hb_user_data_array_tE11get_acquireEv(ptr noundef nonnull align 8 dereferenceable(8) %30)
  store ptr %31, ptr %12, align 8, !tbaa !57
  %32 = load ptr, ptr %12, align 8, !tbaa !57
  %33 = icmp ne ptr %32, null
  %34 = xor i1 %33, true
  %35 = zext i1 %34 to i64
  %36 = call i64 @llvm.expect.i64(i64 %35, i64 0)
  %37 = icmp ne i64 %36, 0
  br i1 %37, label %38, label %62

38:                                               ; preds = %27
  %39 = call noalias ptr @calloc(i64 noundef 1, i64 noundef 56) #14
  store ptr %39, ptr %12, align 8, !tbaa !57
  %40 = load ptr, ptr %12, align 8, !tbaa !57
  %41 = icmp ne ptr %40, null
  %42 = xor i1 %41, true
  %43 = zext i1 %42 to i64
  %44 = call i64 @llvm.expect.i64(i64 %43, i64 0)
  %45 = icmp ne i64 %44, 0
  br i1 %45, label %46, label %47

46:                                               ; preds = %38
  store i1 false, ptr %6, align 1
  store i32 1, ptr %13, align 4
  br label %69

47:                                               ; preds = %38
  %48 = load ptr, ptr %12, align 8, !tbaa !57
  call void @_ZN20hb_user_data_array_t4initEv(ptr noundef nonnull align 8 dereferenceable(56) %48)
  %49 = load ptr, ptr %7, align 8, !tbaa !4
  %50 = getelementptr inbounds nuw %struct.hb_subset_input_t, ptr %49, i32 0, i32 0
  %51 = getelementptr inbounds nuw %struct.hb_object_header_t, ptr %50, i32 0, i32 2
  %52 = load ptr, ptr %12, align 8, !tbaa !57
  %53 = call noundef zeroext i1 @_ZNK15hb_atomic_ptr_tI20hb_user_data_array_tE7cmpexchEPKS0_PS0_(ptr noundef nonnull align 8 dereferenceable(8) %51, ptr noundef null, ptr noundef %52)
  %54 = xor i1 %53, true
  %55 = zext i1 %54 to i64
  %56 = call i64 @llvm.expect.i64(i64 %55, i64 0)
  %57 = icmp ne i64 %56, 0
  br i1 %57, label %58, label %61

58:                                               ; preds = %47
  %59 = load ptr, ptr %12, align 8, !tbaa !57
  call void @_ZN20hb_user_data_array_t4finiEv(ptr noundef nonnull align 8 dereferenceable(56) %59)
  %60 = load ptr, ptr %12, align 8, !tbaa !57
  call void @free(ptr noundef %60) #13
  store i32 2, ptr %13, align 4
  br label %69

61:                                               ; preds = %47
  br label %62

62:                                               ; preds = %61, %27
  %63 = load ptr, ptr %12, align 8, !tbaa !57
  %64 = load ptr, ptr %8, align 8, !tbaa !54
  %65 = load ptr, ptr %9, align 8, !tbaa !56
  %66 = load ptr, ptr %10, align 8, !tbaa !56
  %67 = load i32, ptr %11, align 4, !tbaa !43
  %68 = call noundef zeroext i1 @_ZN20hb_user_data_array_t3setEP18hb_user_data_key_tPvPFvS2_Ei(ptr noundef nonnull align 8 dereferenceable(56) %63, ptr noundef %64, ptr noundef %65, ptr noundef %66, i32 noundef %67)
  store i1 %68, ptr %6, align 1
  store i32 1, ptr %13, align 4
  br label %69

69:                                               ; preds = %62, %58, %46
  call void @llvm.lifetime.end.p0(i64 8, ptr %12) #13
  %70 = load i32, ptr %13, align 4
  switch i32 %70, label %73 [
    i32 1, label %71
    i32 2, label %27
  ]

71:                                               ; preds = %69, %25
  %72 = load i1, ptr %6, align 1
  ret i1 %72

73:                                               ; preds = %69
  unreachable
}

; Function Attrs: mustprogress nounwind uwtable
define dso_local i32 @hb_subset_input_set_user_data(ptr noundef %0, ptr noundef %1, ptr noundef %2, ptr noundef %3, i32 noundef %4) #0 {
  %6 = alloca ptr, align 8
  %7 = alloca ptr, align 8
  %8 = alloca ptr, align 8
  %9 = alloca ptr, align 8
  %10 = alloca i32, align 4
  store ptr %0, ptr %6, align 8, !tbaa !4
  store ptr %1, ptr %7, align 8, !tbaa !54
  store ptr %2, ptr %8, align 8, !tbaa !56
  store ptr %3, ptr %9, align 8, !tbaa !56
  store i32 %4, ptr %10, align 4, !tbaa !43
  %11 = load ptr, ptr %6, align 8, !tbaa !4
  %12 = load ptr, ptr %7, align 8, !tbaa !54
  %13 = load ptr, ptr %8, align 8, !tbaa !56
  %14 = load ptr, ptr %9, align 8, !tbaa !56
  %15 = load i32, ptr %10, align 4, !tbaa !43
  %16 = call noundef zeroext i1 @_ZL23hb_object_set_user_dataI17hb_subset_input_tEbPT_P18hb_user_data_key_tPvPFvS5_Ei(ptr noundef %11, ptr noundef %12, ptr noundef %13, ptr noundef %14, i32 noundef %15)
  %17 = zext i1 %16 to i32
  ret i32 %17
}